; Function Attrs: nounwind uwtable
define dso_local { ptr, ptr } @gen_destructure_alt(ptr %0, ptr %1) local_unnamed_addr #1 {
  %.not7 = icmp eq ptr %0, null
  br i1 %.not7, label %._crit_edge, label %.lr.ph

._crit_edge:                                      ; preds = %17, %2
  %3 = tail call ptr @jv_mem_alloc(i64 noundef 160) #17
  %4 = getelementptr inbounds nuw i8, ptr %3, i64 16
  tail call void @llvm.memset.p0.i64(ptr noundef nonnull align 8 dereferenceable(16) %3, i8 0, i64 16, i1 false)
  store i32 40, ptr %4, align 8, !tbaa !25
  %5 = getelementptr inbounds nuw i8, ptr %3, i64 152
  store i32 -1, ptr %5, align 8, !tbaa !26
  %6 = getelementptr inbounds nuw i8, ptr %3, i64 80
  %7 = getelementptr inbounds nuw i8, ptr %3, i64 104
  tail call void @llvm.memset.p0.i64(ptr noundef nonnull align 8 dereferenceable(24) %6, i8 0, i64 24, i1 false)
  store i32 -1, ptr %7, align 8, !tbaa !27
  %8 = getelementptr inbounds nuw i8, ptr %3, i64 108
  store i32 -1, ptr %8, align 4, !tbaa !28
  %9 = getelementptr inbounds nuw i8, ptr %3, i64 112
  %10 = getelementptr inbounds nuw i8, ptr %3, i64 72
  %11 = getelementptr inbounds nuw i8, ptr %3, i64 128
  tail call void @llvm.memset.p0.i64(ptr noundef nonnull align 8 dereferenceable(32) %11, i8 0, i64 16, i1 false)
  store i64 -1, ptr %10, align 8
  %12 = getelementptr inbounds nuw i8, ptr %3, i64 64
  store ptr null, ptr %12, align 8, !tbaa !21
  store ptr %0, ptr %9, align 8, !tbaa !50
  %.sroa.3.0..sroa_idx = getelementptr inbounds nuw i8, ptr %3, i64 120
  store ptr %1, ptr %.sroa.3.0..sroa_idx, align 8, !tbaa !50
  %.fca.0.insert.i = insertvalue { ptr, ptr } poison, ptr %3, 0
  %.fca.1.insert.i = insertvalue { ptr, ptr } %.fca.0.insert.i, ptr %3, 1
  ret { ptr, ptr } %.fca.1.insert.i

.lr.ph:                                           ; preds = %2, %17
  %.08 = phi ptr [ %18, %17 ], [ %0, %2 ]
  %13 = getelementptr inbounds nuw i8, ptr %.08, i64 16
  %14 = load i32, ptr %13, align 8, !tbaa !25
  %15 = icmp eq i32 %14, 8
  br i1 %15, label %16, label %17

16:                                               ; preds = %.lr.ph
  store i32 41, ptr %13, align 8, !tbaa !25
  br label %17

17:                                               ; preds = %.lr.ph, %16
  %18 = load ptr, ptr %.08, align 8, !tbaa !22
  %.not = icmp eq ptr %18, null
  br i1 %.not, label %._crit_edge, label %.lr.ph, !llvm.loop !60
}